target datalayout = "e-m:e-p270:32:32-p271:32:32-p272:64:64-i64:64-i128:128-f80:128-n8:16:32:64-S128"
target triple = "x86_64-pc-linux-gnu"

%"struct.icu_77::LSR" = type <{ ptr, ptr, ptr, ptr, i32, i32, i32, [4 x i8] }>
%"class.icu_77::UObject" = type { ptr }
%"class.icu_77::StringPiece" = type <{ ptr, i32, [4 x i8] }>
%"class.icu_77::Locale" = type <{ %"class.icu_77::UObject", [12 x i8], [6 x i8], [4 x i8], [2 x i8], i32, [4 x i8], ptr, [157 x i8], [3 x i8], ptr, i8, [7 x i8] }>

@.str = private unnamed_addr constant [1 x i8] zeroinitializer, align 1
@.str.7 = private unnamed_addr constant [4 x i8] c"und\00", align 1

; Function Attrs: inlinehint mustprogress nounwind uwtable
define linkonce_odr noundef ptr @_ZNK6icu_776Locale10getVariantEv(ptr noundef nonnull align 8 dereferenceable(217) %0) #2 comdat align 2 {
  %2 = alloca ptr, align 8
  store ptr %0, ptr %2, align 8, !tbaa !115
  %3 = load ptr, ptr %2, align 8
  %4 = getelementptr inbounds nuw %"class.icu_77::Locale", ptr %3, i32 0, i32 11
  %5 = load i8, ptr %4, align 8, !tbaa !126
  %6 = icmp ne i8 %5, 0
  br i1 %6, label %7, label %8

7:                                                ; preds = %1
  br label %15

8:                                                ; preds = %1
  %9 = getelementptr inbounds nuw %"class.icu_77::Locale", ptr %3, i32 0, i32 10
  %10 = load ptr, ptr %9, align 8, !tbaa !130
  %11 = getelementptr inbounds nuw %"class.icu_77::Locale", ptr %3, i32 0, i32 5
  %12 = load i32, ptr %11, align 8, !tbaa !131
  %13 = sext i32 %12 to i64
  %14 = getelementptr inbounds i8, ptr %10, i64 %13
  br label %15

15:                                               ; preds = %8, %7
  %16 = phi ptr [ @.str, %7 ], [ %14, %8 ]
  ret ptr %16
}

; Function Attrs: inlinehint mustprogress nounwind uwtable
define linkonce_odr noundef ptr @_ZNK6icu_776Locale10getCountryEv(ptr noundef nonnull align 8 dereferenceable(217) %0) #2 comdat align 2 {
  %2 = alloca ptr, align 8
  store ptr %0, ptr %2, align 8, !tbaa !115
  %3 = load ptr, ptr %2, align 8
  %4 = getelementptr inbounds nuw %"class.icu_77::Locale", ptr %3, i32 0, i32 3
  %5 = getelementptr inbounds [4 x i8], ptr %4, i64 0, i64 0
  ret ptr %5
}

; Function Attrs: inlinehint mustprogress nounwind uwtable
define linkonce_odr noundef ptr @_ZNK6icu_776Locale9getScriptEv(ptr noundef nonnull align 8 dereferenceable(217) %0) #2 comdat align 2 {
  %2 = alloca ptr, align 8
  store ptr %0, ptr %2, align 8, !tbaa !115
  %3 = load ptr, ptr %2, align 8
  %4 = getelementptr inbounds nuw %"class.icu_77::Locale", ptr %3, i32 0, i32 2
  %5 = getelementptr inbounds [6 x i8], ptr %4, i64 0, i64 0
  ret ptr %5
}

; Function Attrs: inlinehint mustprogress nounwind uwtable
define linkonce_odr noundef ptr @_ZNK6icu_776Locale11getLanguageEv(ptr noundef nonnull align 8 dereferenceable(217) %0) #2 comdat align 2 {
  %2 = alloca ptr, align 8
  store ptr %0, ptr %2, align 8, !tbaa !115
  %3 = load ptr, ptr %2, align 8
  %4 = getelementptr inbounds nuw %"class.icu_77::Locale", ptr %3, i32 0, i32 1
  %5 = getelementptr inbounds [12 x i8], ptr %4, i64 0, i64 0
  ret ptr %5
}

; Function Attrs: mustprogress uwtable
define linkonce_odr void @_ZN6icu_773LSRC2EPKcS2_S2_i(ptr noundef nonnull align 8 dereferenceable(48) %0, ptr noundef %1, ptr noundef %2, ptr noundef %3, i32 noundef %4) unnamed_addr #1 comdat align 2 {
  %6 = alloca ptr, align 8
  %7 = alloca ptr, align 8
  %8 = alloca ptr, align 8
  %9 = alloca ptr, align 8
  %10 = alloca i32, align 4
  store ptr %0, ptr %6, align 8, !tbaa !35
  store ptr %1, ptr %7, align 8, !tbaa !17
  store ptr %2, ptr %8, align 8, !tbaa !17
  store ptr %3, ptr %9, align 8, !tbaa !17
  store i32 %4, ptr %10, align 4, !tbaa !14
  %11 = load ptr, ptr %6, align 8
  %12 = getelementptr inbounds nuw %"struct.icu_77::LSR", ptr %11, i32 0, i32 0
  %13 = load ptr, ptr %7, align 8, !tbaa !17
  store ptr %13, ptr %12, align 8, !tbaa !120
  %14 = getelementptr inbounds nuw %"struct.icu_77::LSR", ptr %11, i32 0, i32 1
  %15 = load ptr, ptr %8, align 8, !tbaa !17
  store ptr %15, ptr %14, align 8, !tbaa !121
  %16 = getelementptr inbounds nuw %"struct.icu_77::LSR", ptr %11, i32 0, i32 2
  %17 = load ptr, ptr %9, align 8, !tbaa !17
  store ptr %17, ptr %16, align 8, !tbaa !122
  %18 = getelementptr inbounds nuw %"struct.icu_77::LSR", ptr %11, i32 0, i32 3
  store ptr null, ptr %18, align 8, !tbaa !36
  %19 = getelementptr inbounds nuw %"struct.icu_77::LSR", ptr %11, i32 0, i32 4
  %20 = getelementptr inbounds nuw %"struct.icu_77::LSR", ptr %11, i32 0, i32 2
  %21 = load ptr, ptr %20, align 8, !tbaa !122
  %22 = call noundef i32 @_ZN6icu_773LSR14indexForRegionEPKc(ptr noundef %21)
  store i32 %22, ptr %19, align 8, !tbaa !123
  %23 = getelementptr inbounds nuw %"struct.icu_77::LSR", ptr %11, i32 0, i32 5
  %24 = load i32, ptr %10, align 4, !tbaa !14
  store i32 %24, ptr %23, align 4, !tbaa !124
  %25 = getelementptr inbounds nuw %"struct.icu_77::LSR", ptr %11, i32 0, i32 6
  store i32 0, ptr %25, align 8, !tbaa !125
  ret void
}

; Function Attrs: inlinehint mustprogress nounwind uwtable
define linkonce_odr noundef ptr @_ZNK6icu_776Locale7getNameEv(ptr noundef nonnull align 8 dereferenceable(217) %0) #2 comdat align 2 {
  %2 = alloca ptr, align 8
  store ptr %0, ptr %2, align 8, !tbaa !115
  %3 = load ptr, ptr %2, align 8
  %4 = getelementptr inbounds nuw %"class.icu_77::Locale", ptr %3, i32 0, i32 7
  %5 = load ptr, ptr %4, align 8, !tbaa !129
  ret ptr %5
}

; Function Attrs: inlinehint mustprogress nounwind uwtable
define linkonce_odr noundef signext i8 @_ZNK6icu_776Locale7isBogusEv(ptr noundef nonnull align 8 dereferenceable(217) %0) #2 comdat align 2 {
  %2 = alloca ptr, align 8
  store ptr %0, ptr %2, align 8, !tbaa !115
  %3 = load ptr, ptr %2, align 8
  %4 = getelementptr inbounds nuw %"class.icu_77::Locale", ptr %3, i32 0, i32 11
  %5 = load i8, ptr %4, align 8, !tbaa !126
  ret i8 %5
}

; Function Attrs: mustprogress nounwind uwtable
define linkonce_odr void @_ZN6icu_773LSRC2Ev(ptr noundef nonnull align 8 dereferenceable(48) %0) unnamed_addr #0 comdat align 2 {
  %2 = alloca ptr, align 8
  store ptr %0, ptr %2, align 8, !tbaa !35
  %3 = load ptr, ptr %2, align 8
  %4 = getelementptr inbounds nuw %"struct.icu_77::LSR", ptr %3, i32 0, i32 0
  store ptr @.str.7, ptr %4, align 8, !tbaa !120
  %5 = getelementptr inbounds nuw %"struct.icu_77::LSR", ptr %3, i32 0, i32 1
  store ptr @.str, ptr %5, align 8, !tbaa !121
  %6 = getelementptr inbounds nuw %"struct.icu_77::LSR", ptr %3, i32 0, i32 2
  store ptr @.str, ptr %6, align 8, !tbaa !122
  %7 = getelementptr inbounds nuw %"struct.icu_77::LSR", ptr %3, i32 0, i32 3
  store ptr null, ptr %7, align 8, !tbaa !36
  %8 = getelementptr inbounds nuw %"struct.icu_77::LSR", ptr %3, i32 0, i32 4
  store i32 0, ptr %8, align 8, !tbaa !123
  %9 = getelementptr inbounds nuw %"struct.icu_77::LSR", ptr %3, i32 0, i32 5
  store i32 0, ptr %9, align 4, !tbaa !124
  %10 = getelementptr inbounds nuw %"struct.icu_77::LSR", ptr %3, i32 0, i32 6
  store i32 0, ptr %10, align 8, !tbaa !125
  ret void
}

; Function Attrs: inlinehint mustprogress nounwind uwtable
define internal noundef signext i8 @_ZL9U_FAILURE10UErrorCode(i32 noundef %0) #2 {
  %2 = alloca i32, align 4
  store i32 %0, ptr %2, align 4, !tbaa !15
  %3 = load i32, ptr %2, align 4, !tbaa !15
  %4 = icmp sgt i32 %3, 0
  %5 = zext i1 %4 to i8
  ret i8 %5
}

; Function Attrs: mustprogress uwtable
define void @_ZNK6icu_7713LikelySubtags20makeMaximizedLsrFromERKNS_6LocaleEbR10UErrorCode(ptr dead_on_unwind noalias writable sret(%"struct.icu_77::LSR") align 8 %0, ptr noundef nonnull align 8 dereferenceable(352) %1, ptr noundef nonnull align 8 dereferenceable(217) %2, i1 noundef zeroext %3, ptr noundef nonnull align 4 dereferenceable(4) %4) #1 align 2 personality ptr @__gxx_personality_v0 {
  %6 = alloca ptr, align 8
  %7 = alloca ptr, align 8
  %8 = alloca ptr, align 8
  %9 = alloca i8, align 1
  %10 = alloca ptr, align 8
  %11 = alloca ptr, align 8
  %12 = alloca i32, align 4
  %13 = alloca %"struct.icu_77::LSR", align 8
  %14 = alloca %"class.icu_77::StringPiece", align 8
  %15 = alloca ptr, align 8
  %16 = alloca i32, align 4
  %17 = alloca %"class.icu_77::StringPiece", align 8
  %18 = alloca %"class.icu_77::StringPiece", align 8
  store ptr %0, ptr %6, align 8
  store ptr %1, ptr %7, align 8, !tbaa !38
  store ptr %2, ptr %8, align 8, !tbaa !115
  %19 = zext i1 %3 to i8
  store i8 %19, ptr %9, align 1, !tbaa !117
  store ptr %4, ptr %10, align 8, !tbaa !22
  %20 = load ptr, ptr %7, align 8
  %21 = load ptr, ptr %10, align 8, !tbaa !22
  %22 = load i32, ptr %21, align 4, !tbaa !15
  %23 = call noundef signext i8 @_ZL9U_FAILURE10UErrorCode(i32 noundef %22)
  %24 = icmp ne i8 %23, 0
  br i1 %24, label %25, label %26

25:                                               ; preds = %5
  call void @_ZN6icu_773LSRC2Ev(ptr noundef nonnull align 8 dereferenceable(48) %0)
  br label %113

26:                                               ; preds = %5
  %27 = load ptr, ptr %8, align 8, !tbaa !115
  %28 = call noundef signext i8 @_ZNK6icu_776Locale7isBogusEv(ptr noundef nonnull align 8 dereferenceable(217) %27)
  %29 = icmp ne i8 %28, 0
  br i1 %29, label %30, label %32

30:                                               ; preds = %26
  %31 = load ptr, ptr %10, align 8, !tbaa !22
  store i32 1, ptr %31, align 4, !tbaa !15
  call void @_ZN6icu_773LSRC2Ev(ptr noundef nonnull align 8 dereferenceable(48) %0)
  br label %113

32:                                               ; preds = %26
  call void @llvm.lifetime.start.p0(i64 8, ptr %11) #13
  %33 = load ptr, ptr %8, align 8, !tbaa !115
  %34 = call noundef ptr @_ZNK6icu_776Locale7getNameEv(ptr noundef nonnull align 8 dereferenceable(217) %33)
  store ptr %34, ptr %11, align 8, !tbaa !17
  %35 = load i8, ptr %9, align 1, !tbaa !117, !range !118, !noundef !119
  %36 = trunc i8 %35 to i1
  br i1 %36, label %57, label %37

37:                                               ; preds = %32
  %38 = load ptr, ptr %11, align 8, !tbaa !17
  %39 = getelementptr inbounds i8, ptr %38, i64 0
  %40 = load i8, ptr %39, align 1, !tbaa !114
  %41 = sext i8 %40 to i32
  %42 = icmp eq i32 %41, 64
  br i1 %42, label %43, label %57

43:                                               ; preds = %37
  %44 = load ptr, ptr %11, align 8, !tbaa !17
  %45 = getelementptr inbounds i8, ptr %44, i64 1
  %46 = load i8, ptr %45, align 1, !tbaa !114
  %47 = sext i8 %46 to i32
  %48 = icmp eq i32 %47, 120
  br i1 %48, label %49, label %57

49:                                               ; preds = %43
  %50 = load ptr, ptr %11, align 8, !tbaa !17
  %51 = getelementptr inbounds i8, ptr %50, i64 2
  %52 = load i8, ptr %51, align 1, !tbaa !114
  %53 = sext i8 %52 to i32
  %54 = icmp eq i32 %53, 61
  br i1 %54, label %55, label %57

55:                                               ; preds = %49
  %56 = load ptr, ptr %11, align 8, !tbaa !17
  call void @_ZN6icu_773LSRC2EPKcS2_S2_i(ptr noundef nonnull align 8 dereferenceable(48) %0, ptr noundef %56, ptr noundef @.str, ptr noundef @.str, i32 noundef 7)
  store i32 1, ptr %12, align 4
  br label %112

57:                                               ; preds = %49, %43, %37, %32
  call void @llvm.lifetime.start.p0(i64 48, ptr %13) #13
  %58 = load ptr, ptr %8, align 8, !tbaa !115
  %59 = call noundef ptr @_ZNK6icu_776Locale11getLanguageEv(ptr noundef nonnull align 8 dereferenceable(217) %58)
  %60 = load ptr, ptr %8, align 8, !tbaa !115
  %61 = call noundef ptr @_ZNK6icu_776Locale9getScriptEv(ptr noundef nonnull align 8 dereferenceable(217) %60)
  %62 = load ptr, ptr %8, align 8, !tbaa !115
  %63 = call noundef ptr @_ZNK6icu_776Locale10getCountryEv(ptr noundef nonnull align 8 dereferenceable(217) %62)
  %64 = load ptr, ptr %8, align 8, !tbaa !115
  %65 = call noundef ptr @_ZNK6icu_776Locale10getVariantEv(ptr noundef nonnull align 8 dereferenceable(217) %64)
  %66 = load i8, ptr %9, align 1, !tbaa !117, !range !118, !noundef !119
  %67 = trunc i8 %66 to i1
  %68 = load ptr, ptr %10, align 8, !tbaa !22
  call void @_ZNK6icu_7713LikelySubtags16makeMaximizedLsrEPKcS2_S2_S2_bR10UErrorCode(ptr dead_on_unwind writable sret(%"struct.icu_77::LSR") align 8 %13, ptr noundef nonnull align 8 dereferenceable(352) %20, ptr noundef %59, ptr noundef %61, ptr noundef %63, ptr noundef %65, i1 noundef zeroext %67, ptr noundef nonnull align 4 dereferenceable(4) %68)
  %69 = getelementptr inbounds nuw %"struct.icu_77::LSR", ptr %13, i32 0, i32 0
  %70 = load ptr, ptr %69, align 8, !tbaa !120
  %71 = call i64 @strlen(ptr noundef %70) #16
  %72 = icmp eq i64 %71, 0
  br i1 %72, label %73, label %110

73:                                               ; preds = %57
  %74 = getelementptr inbounds nuw %"struct.icu_77::LSR", ptr %13, i32 0, i32 1
  %75 = load ptr, ptr %74, align 8, !tbaa !121
  %76 = call i64 @strlen(ptr noundef %75) #16
  %77 = icmp eq i64 %76, 0
  br i1 %77, label %78, label %110

78:                                               ; preds = %73
  %79 = getelementptr inbounds nuw %"struct.icu_77::LSR", ptr %13, i32 0, i32 2
  %80 = load ptr, ptr %79, align 8, !tbaa !122
  %81 = call i64 @strlen(ptr noundef %80) #16
  %82 = icmp eq i64 %81, 0
  br i1 %82, label %83, label %110

83:                                               ; preds = %78
  %84 = load ptr, ptr %8, align 8, !tbaa !115
  %85 = invoke noundef ptr @_ZNK6icu_776Locale11getLanguageEv(ptr noundef nonnull align 8 dereferenceable(217) %84)
          to label %86 unwind label %106

86:                                               ; preds = %83
  invoke void @_ZN6icu_7711StringPieceC1EPKc(ptr noundef nonnull align 8 dereferenceable(12) %14, ptr noundef %85)
          to label %87 unwind label %106

87:                                               ; preds = %86
  %88 = load ptr, ptr %8, align 8, !tbaa !115
  %89 = invoke noundef ptr @_ZNK6icu_776Locale9getScriptEv(ptr noundef nonnull align 8 dereferenceable(217) %88)
          to label %90 unwind label %106

90:                                               ; preds = %87
  invoke void @_ZN6icu_7711StringPieceC1EPKc(ptr noundef nonnull align 8 dereferenceable(12) %17, ptr noundef %89)
          to label %91 unwind label %106

91:                                               ; preds = %90
  %92 = load ptr, ptr %8, align 8, !tbaa !115
  %93 = invoke noundef ptr @_ZNK6icu_776Locale10getCountryEv(ptr noundef nonnull align 8 dereferenceable(217) %92)
          to label %94 unwind label %106

94:                                               ; preds = %91
  invoke void @_ZN6icu_7711StringPieceC1EPKc(ptr noundef nonnull align 8 dereferenceable(12) %18, ptr noundef %93)
          to label %95 unwind label %106

95:                                               ; preds = %94
  %96 = load ptr, ptr %10, align 8, !tbaa !22
  %97 = getelementptr inbounds nuw { ptr, i32 }, ptr %14, i32 0, i32 0
  %98 = load ptr, ptr %97, align 8
  %99 = getelementptr inbounds nuw { ptr, i32 }, ptr %14, i32 0, i32 1
  %100 = load i32, ptr %99, align 8
  %101 = getelementptr inbounds nuw { ptr, i32 }, ptr %17, i32 0, i32 0
  %102 = load ptr, ptr %101, align 8
  %103 = getelementptr inbounds nuw { ptr, i32 }, ptr %17, i32 0, i32 1
  %104 = load i32, ptr %103, align 8
  invoke void @_ZN6icu_773LSRC1ENS_11StringPieceES1_S1_iR10UErrorCode(ptr noundef nonnull align 8 dereferenceable(48) %0, ptr %98, i32 %100, ptr %102, i32 %104, ptr noundef byval(%"class.icu_77::StringPiece") align 8 %18, i32 noundef 7, ptr noundef nonnull align 4 dereferenceable(4) %96)
          to label %105 unwind label %106

105:                                              ; preds = %95
  store i32 1, ptr %12, align 4
  br label %111

106:                                              ; preds = %95, %94, %91, %90, %87, %86, %83
  %107 = landingpad { ptr, i32 }
          cleanup
  %108 = extractvalue { ptr, i32 } %107, 0
  store ptr %108, ptr %15, align 8
  %109 = extractvalue { ptr, i32 } %107, 1
  store i32 %109, ptr %16, align 4
  call void @_ZN6icu_773LSRD2Ev(ptr noundef nonnull align 8 dereferenceable(48) %13) #13
  call void @llvm.lifetime.end.p0(i64 48, ptr %13) #13
  call void @llvm.lifetime.end.p0(i64 8, ptr %11) #13
  br label %114

110:                                              ; preds = %78, %73, %57
  call void @_ZN6icu_773LSRC1EOS0_(ptr noundef nonnull align 8 dereferenceable(48) %0, ptr noundef nonnull align 8 dereferenceable(48) %13) #13
  store i32 1, ptr %12, align 4
  br label %111

111:                                              ; preds = %110, %105
  call void @_ZN6icu_773LSRD2Ev(ptr noundef nonnull align 8 dereferenceable(48) %13) #13
  call void @llvm.lifetime.end.p0(i64 48, ptr %13) #13
  br label %112

112:                                              ; preds = %111, %55
  call void @llvm.lifetime.end.p0(i64 8, ptr %11) #13
  br label %113

113:                                              ; preds = %112, %30, %25
  ret void

114:                                              ; preds = %106
  %115 = load ptr, ptr %15, align 8
  %116 = load i32, ptr %16, align 4
  %117 = insertvalue { ptr, i32 } poison, ptr %115, 0
  %118 = insertvalue { ptr, i32 } %117, i32 %116, 1
  resume { ptr, i32 } %118
}