; Function Attrs: mustprogress uwtable
define void @_ZNK6icu_7713LikelySubtags20makeMaximizedLsrFromERKNS_6LocaleEbR10UErrorCode(ptr dead_on_unwind noalias writable sret(%"struct.icu_77::LSR") align 8 %0, ptr noundef nonnull readonly align 8 captures(none) dereferenceable(352) %1, ptr noundef nonnull align 8 dereferenceable(217) %2, i1 noundef zeroext %3, ptr noundef nonnull align 4 dereferenceable(4) %4) local_unnamed_addr #1 align 2 personality ptr @__gxx_personality_v0 {
  %6 = alloca %"struct.icu_77::LSR", align 8
  %7 = alloca %"class.icu_77::StringPiece", align 8
  %8 = alloca %"class.icu_77::StringPiece", align 8
  %9 = alloca %"class.icu_77::StringPiece", align 8
  %10 = load i32, ptr %4, align 4, !tbaa !13
  %11 = icmp slt i32 %10, 1
  br i1 %11, label %16, label %12

12:                                               ; preds = %5
  store ptr @.str.7, ptr %0, align 8, !tbaa !90
  %13 = getelementptr inbounds nuw i8, ptr %0, i64 8
  store ptr @.str, ptr %13, align 8, !tbaa !91
  %14 = getelementptr inbounds nuw i8, ptr %0, i64 16
  store ptr @.str, ptr %14, align 8, !tbaa !92
  %15 = getelementptr inbounds nuw i8, ptr %0, i64 24
  tail call void @llvm.memset.p0.i64(ptr noundef nonnull align 8 dereferenceable(20) %15, i8 0, i64 20, i1 false)
  br label %85

16:                                               ; preds = %5
  %17 = getelementptr inbounds nuw i8, ptr %2, i64 216
  %18 = load i8, ptr %17, align 8, !tbaa !123
  %.not21 = icmp eq i8 %18, 0
  br i1 %.not21, label %23, label %19

19:                                               ; preds = %16
  store i32 1, ptr %4, align 4, !tbaa !13
  store ptr @.str.7, ptr %0, align 8, !tbaa !90
  %20 = getelementptr inbounds nuw i8, ptr %0, i64 8
  store ptr @.str, ptr %20, align 8, !tbaa !91
  %21 = getelementptr inbounds nuw i8, ptr %0, i64 16
  store ptr @.str, ptr %21, align 8, !tbaa !92
  %22 = getelementptr inbounds nuw i8, ptr %0, i64 24
  tail call void @llvm.memset.p0.i64(ptr noundef nonnull align 8 dereferenceable(20) %22, i8 0, i64 20, i1 false)
  br label %85

23:                                               ; preds = %16
  %24 = getelementptr inbounds nuw i8, ptr %2, i64 40
  %25 = load ptr, ptr %24, align 8, !tbaa !125
  br i1 %3, label %45, label %26

26:                                               ; preds = %23
  %27 = load i8, ptr %25, align 1, !tbaa !36
  %28 = icmp eq i8 %27, 64
  br i1 %28, label %29, label %45

29:                                               ; preds = %26
  %30 = getelementptr inbounds nuw i8, ptr %25, i64 1
  %31 = load i8, ptr %30, align 1, !tbaa !36
  %32 = icmp eq i8 %31, 120
  br i1 %32, label %33, label %45

33:                                               ; preds = %29
  %34 = getelementptr inbounds nuw i8, ptr %25, i64 2
  %35 = load i8, ptr %34, align 1, !tbaa !36
  %36 = icmp eq i8 %35, 61
  br i1 %36, label %37, label %45

37:                                               ; preds = %33
  store ptr %25, ptr %0, align 8, !tbaa !90
  %38 = getelementptr inbounds nuw i8, ptr %0, i64 8
  store ptr @.str, ptr %38, align 8, !tbaa !91
  %39 = getelementptr inbounds nuw i8, ptr %0, i64 16
  store ptr @.str, ptr %39, align 8, !tbaa !92
  %40 = getelementptr inbounds nuw i8, ptr %0, i64 24
  store ptr null, ptr %40, align 8, !tbaa !26
  %41 = getelementptr inbounds nuw i8, ptr %0, i64 32
  %42 = tail call noundef i32 @_ZN6icu_773LSR14indexForRegionEPKc(ptr noundef nonnull @.str)
  store i32 %42, ptr %41, align 8, !tbaa !94
  %43 = getelementptr inbounds nuw i8, ptr %0, i64 36
  store i32 7, ptr %43, align 4, !tbaa !95
  %44 = getelementptr inbounds nuw i8, ptr %0, i64 40
  store i32 0, ptr %44, align 8, !tbaa !96
  br label %85

45:                                               ; preds = %33, %29, %26, %23
  call void @llvm.lifetime.start.p0(i64 48, ptr nonnull %6) #17
  %46 = getelementptr inbounds nuw i8, ptr %2, i64 8
  %47 = getelementptr inbounds nuw i8, ptr %2, i64 20
  %48 = getelementptr inbounds nuw i8, ptr %2, i64 26
  %49 = getelementptr inbounds nuw i8, ptr %2, i64 208
  %50 = load ptr, ptr %49, align 8
  %51 = getelementptr inbounds nuw i8, ptr %2, i64 32
  %52 = load i32, ptr %51, align 8
  %53 = sext i32 %52 to i64
  %54 = getelementptr inbounds i8, ptr %50, i64 %53
  call void @_ZNK6icu_7713LikelySubtags16makeMaximizedLsrEPKcS2_S2_S2_bR10UErrorCode(ptr dead_on_unwind nonnull writable sret(%"struct.icu_77::LSR") align 8 %6, ptr noundef nonnull align 8 dereferenceable(352) %1, ptr noundef nonnull %46, ptr noundef nonnull %47, ptr noundef nonnull %48, ptr noundef %54, i1 noundef zeroext %3, ptr noundef nonnull align 4 dereferenceable(4) %4)
  %55 = load ptr, ptr %6, align 8, !tbaa !90
  %char0 = load i8, ptr %55, align 1
  %56 = icmp eq i8 %char0, 0
  br i1 %56, label %57, label %77

57:                                               ; preds = %45
  %58 = getelementptr inbounds nuw i8, ptr %6, i64 8
  %59 = load ptr, ptr %58, align 8, !tbaa !91
  %char022 = load i8, ptr %59, align 1
  %60 = icmp eq i8 %char022, 0
  br i1 %60, label %61, label %77

61:                                               ; preds = %57
  %62 = getelementptr inbounds nuw i8, ptr %6, i64 16
  %63 = load ptr, ptr %62, align 8, !tbaa !92
  %char023 = load i8, ptr %63, align 1
  %64 = icmp eq i8 %char023, 0
  br i1 %64, label %65, label %77

65:                                               ; preds = %61
  invoke void @_ZN6icu_7711StringPieceC1EPKc(ptr noundef nonnull align 8 dereferenceable(12) %7, ptr noundef nonnull %46)
          to label %66 unwind label %75

66:                                               ; preds = %65
  invoke void @_ZN6icu_7711StringPieceC1EPKc(ptr noundef nonnull align 8 dereferenceable(12) %8, ptr noundef nonnull %47)
          to label %67 unwind label %75

67:                                               ; preds = %66
  invoke void @_ZN6icu_7711StringPieceC1EPKc(ptr noundef nonnull align 8 dereferenceable(12) %9, ptr noundef nonnull %48)
          to label %68 unwind label %75

68:                                               ; preds = %67
  %69 = load ptr, ptr %7, align 8
  %70 = getelementptr inbounds nuw i8, ptr %7, i64 8
  %71 = load i32, ptr %70, align 8
  %72 = load ptr, ptr %8, align 8
  %73 = getelementptr inbounds nuw i8, ptr %8, i64 8
  %74 = load i32, ptr %73, align 8
  invoke void @_ZN6icu_773LSRC1ENS_11StringPieceES1_S1_iR10UErrorCode(ptr noundef nonnull align 8 dereferenceable(48) %0, ptr %69, i32 %71, ptr %72, i32 %74, ptr noundef nonnull byval(%"class.icu_77::StringPiece") align 8 %9, i32 noundef 7, ptr noundef nonnull align 4 dereferenceable(4) %4)
          to label %78 unwind label %75

75:                                               ; preds = %68, %67, %66, %65
  %76 = landingpad { ptr, i32 }
          cleanup
  call void @_ZN6icu_773LSRD2Ev(ptr noundef nonnull align 8 dereferenceable(48) %6) #17
  call void @llvm.lifetime.end.p0(i64 48, ptr nonnull %6) #17
  resume { ptr, i32 } %76

77:                                               ; preds = %61, %57, %45
  call void @_ZN6icu_773LSRC1EOS0_(ptr noundef nonnull align 8 dereferenceable(48) %0, ptr noundef nonnull align 8 dereferenceable(48) %6) #17
  br label %78

78:                                               ; preds = %68, %77
  %79 = getelementptr inbounds nuw i8, ptr %6, i64 24
  %80 = load ptr, ptr %79, align 8, !tbaa !26
  %.not.i24 = icmp eq ptr %80, null
  br i1 %.not.i24, label %_ZN6icu_773LSRD2Ev.exit, label %81

81:                                               ; preds = %78
  invoke void @_ZN6icu_773LSR11deleteOwnedEv(ptr noundef nonnull align 8 dereferenceable(48) %6)
          to label %_ZN6icu_773LSRD2Ev.exit unwind label %82

82:                                               ; preds = %81
  %83 = landingpad { ptr, i32 }
          catch ptr null
  %84 = extractvalue { ptr, i32 } %83, 0
  call void @__clang_call_terminate(ptr %84) #19
  unreachable

_ZN6icu_773LSRD2Ev.exit:                          ; preds = %78, %81
  call void @llvm.lifetime.end.p0(i64 48, ptr nonnull %6) #17
  br label %85

85:                                               ; preds = %37, %_ZN6icu_773LSRD2Ev.exit, %19, %12
  ret void
}